target datalayout = "e-m:e-p270:32:32-p271:32:32-p272:64:64-i64:64-i128:128-f80:128-n8:16:32:64-S128"
target triple = "x86_64-pc-linux-gnu"

%struct._PyXIData_lookup_context_t = type { ptr, ptr, ptr }
%struct.module_state = type { i32, ptr }

@PyExc_InterpreterError = external global ptr, align 8
@.str.99 = private unnamed_addr constant [15 x i8] c"WHENCE_UNKNOWN\00", align 1
@.str.100 = private unnamed_addr constant [15 x i8] c"WHENCE_RUNTIME\00", align 1
@.str.101 = private unnamed_addr constant [19 x i8] c"WHENCE_LEGACY_CAPI\00", align 1
@.str.102 = private unnamed_addr constant [12 x i8] c"WHENCE_CAPI\00", align 1
@.str.103 = private unnamed_addr constant [10 x i8] c"WHENCE_XI\00", align 1
@.str.104 = private unnamed_addr constant [14 x i8] c"WHENCE_STDLIB\00", align 1
@PyExc_InterpreterNotFoundError = external global ptr, align 8

; Function Attrs: inlinehint nounwind uwtable
define internal ptr @get_module_state(ptr noundef %0) #3 {
  %2 = alloca ptr, align 8
  %3 = alloca ptr, align 8
  store ptr %0, ptr %2, align 8, !tbaa !3
  call void @llvm.lifetime.start.p0(i64 8, ptr %3) #8
  %4 = load ptr, ptr %2, align 8, !tbaa !3
  %5 = call ptr @PyModule_GetState(ptr noundef %4)
  store ptr %5, ptr %3, align 8, !tbaa !8
  %6 = load ptr, ptr %3, align 8, !tbaa !8
  call void @llvm.lifetime.end.p0(i64 8, ptr %3) #8
  ret ptr %6
}

; Function Attrs: nounwind uwtable
define internal i32 @module_exec(ptr noundef %0) #0 {
  %2 = alloca i32, align 4
  %3 = alloca ptr, align 8
  %4 = alloca ptr, align 8
  %5 = alloca ptr, align 8
  %6 = alloca %struct._PyXIData_lookup_context_t, align 8
  %7 = alloca i32, align 4
  store ptr %0, ptr %3, align 8, !tbaa !3
  call void @llvm.lifetime.start.p0(i64 8, ptr %4) #8
  %8 = call ptr @PyInterpreterState_Get()
  store ptr %8, ptr %4, align 8, !tbaa !15
  call void @llvm.lifetime.start.p0(i64 8, ptr %5) #8
  %9 = load ptr, ptr %3, align 8, !tbaa !3
  %10 = call ptr @get_module_state(ptr noundef %9)
  store ptr %10, ptr %5, align 8, !tbaa !8
  call void @llvm.lifetime.start.p0(i64 24, ptr %6) #8
  %11 = load ptr, ptr %4, align 8, !tbaa !15
  %12 = call i32 @_PyXIData_GetLookupContext(ptr noundef %11, ptr noundef %6)
  %13 = icmp slt i32 %12, 0
  br i1 %13, label %14, label %15

14:                                               ; preds = %1
  store i32 -1, ptr %2, align 4
  store i32 1, ptr %7, align 4
  br label %73

15:                                               ; preds = %1
  %16 = load ptr, ptr %3, align 8, !tbaa !3
  %17 = call i32 @PyModule_AddIntConstant(ptr noundef %16, ptr noundef @.str.99, i64 noundef 0)
  %18 = icmp slt i32 %17, 0
  br i1 %18, label %19, label %20

19:                                               ; preds = %15
  br label %72

20:                                               ; preds = %15
  %21 = load ptr, ptr %3, align 8, !tbaa !3
  %22 = call i32 @PyModule_AddIntConstant(ptr noundef %21, ptr noundef @.str.100, i64 noundef 1)
  %23 = icmp slt i32 %22, 0
  br i1 %23, label %24, label %25

24:                                               ; preds = %20
  br label %72

25:                                               ; preds = %20
  %26 = load ptr, ptr %3, align 8, !tbaa !3
  %27 = call i32 @PyModule_AddIntConstant(ptr noundef %26, ptr noundef @.str.101, i64 noundef 2)
  %28 = icmp slt i32 %27, 0
  br i1 %28, label %29, label %30

29:                                               ; preds = %25
  br label %72

30:                                               ; preds = %25
  %31 = load ptr, ptr %3, align 8, !tbaa !3
  %32 = call i32 @PyModule_AddIntConstant(ptr noundef %31, ptr noundef @.str.102, i64 noundef 3)
  %33 = icmp slt i32 %32, 0
  br i1 %33, label %34, label %35

34:                                               ; preds = %30
  br label %72

35:                                               ; preds = %30
  %36 = load ptr, ptr %3, align 8, !tbaa !3
  %37 = call i32 @PyModule_AddIntConstant(ptr noundef %36, ptr noundef @.str.103, i64 noundef 4)
  %38 = icmp slt i32 %37, 0
  br i1 %38, label %39, label %40

39:                                               ; preds = %35
  br label %72

40:                                               ; preds = %35
  %41 = load ptr, ptr %3, align 8, !tbaa !3
  %42 = call i32 @PyModule_AddIntConstant(ptr noundef %41, ptr noundef @.str.104, i64 noundef 5)
  %43 = icmp slt i32 %42, 0
  br i1 %43, label %44, label %45

44:                                               ; preds = %40
  br label %72

45:                                               ; preds = %40
  %46 = load ptr, ptr %3, align 8, !tbaa !3
  %47 = load ptr, ptr @PyExc_InterpreterError, align 8, !tbaa !3
  %48 = call i32 @PyModule_AddType(ptr noundef %46, ptr noundef %47)
  %49 = icmp slt i32 %48, 0
  br i1 %49, label %50, label %51

50:                                               ; preds = %45
  br label %72

51:                                               ; preds = %45
  %52 = load ptr, ptr %3, align 8, !tbaa !3
  %53 = load ptr, ptr @PyExc_InterpreterNotFoundError, align 8, !tbaa !3
  %54 = call i32 @PyModule_AddType(ptr noundef %52, ptr noundef %53)
  %55 = icmp slt i32 %54, 0
  br i1 %55, label %56, label %57

56:                                               ; preds = %51
  br label %72

57:                                               ; preds = %51
  %58 = load ptr, ptr %3, align 8, !tbaa !3
  %59 = getelementptr inbounds nuw %struct._PyXIData_lookup_context_t, ptr %6, i32 0, i32 2
  %60 = load ptr, ptr %59, align 8, !tbaa !228
  %61 = call i32 @PyModule_AddType(ptr noundef %58, ptr noundef %60)
  %62 = icmp slt i32 %61, 0
  br i1 %62, label %63, label %64

63:                                               ; preds = %57
  br label %72

64:                                               ; preds = %57
  %65 = load ptr, ptr %3, align 8, !tbaa !3
  %66 = load ptr, ptr %5, align 8, !tbaa !8
  %67 = getelementptr inbounds nuw %struct.module_state, ptr %66, i32 0, i32 1
  %68 = call i32 @register_memoryview_xid(ptr noundef %65, ptr noundef %67)
  %69 = icmp slt i32 %68, 0
  br i1 %69, label %70, label %71

70:                                               ; preds = %64
  br label %72

71:                                               ; preds = %64
  store i32 0, ptr %2, align 4
  store i32 1, ptr %7, align 4
  br label %73

72:                                               ; preds = %70, %63, %56, %50, %44, %39, %34, %29, %24, %19
  store i32 -1, ptr %2, align 4
  store i32 1, ptr %7, align 4
  br label %73

73:                                               ; preds = %72, %71, %14
  call void @llvm.lifetime.end.p0(i64 24, ptr %6) #8
  call void @llvm.lifetime.end.p0(i64 8, ptr %5) #8
  call void @llvm.lifetime.end.p0(i64 8, ptr %4) #8
  %74 = load i32, ptr %2, align 4
  ret i32 %74
}