; Function Attrs: nounwind uwtable
define internal range(i32 -1, 1) i32 @module_exec(ptr noundef %0) #0 {
  %2 = alloca %struct._PyXIData_lookup_context_t, align 8
  %3 = tail call ptr @PyInterpreterState_Get() #7
  %4 = tail call ptr @PyModule_GetState(ptr noundef %0) #7
  call void @llvm.lifetime.start.p0(i64 24, ptr nonnull %2) #7
  %5 = call i32 @_PyXIData_GetLookupContext(ptr noundef %3, ptr noundef nonnull %2) #7
  %6 = icmp slt i32 %5, 0
  br i1 %6, label %43, label %7

7:                                                ; preds = %1
  %8 = call i32 @PyModule_AddIntConstant(ptr noundef %0, ptr noundef nonnull @.str.99, i64 noundef 0) #7
  %9 = icmp slt i32 %8, 0
  br i1 %9, label %42, label %10

10:                                               ; preds = %7
  %11 = call i32 @PyModule_AddIntConstant(ptr noundef %0, ptr noundef nonnull @.str.100, i64 noundef 1) #7
  %12 = icmp slt i32 %11, 0
  br i1 %12, label %42, label %13

13:                                               ; preds = %10
  %14 = call i32 @PyModule_AddIntConstant(ptr noundef %0, ptr noundef nonnull @.str.101, i64 noundef 2) #7
  %15 = icmp slt i32 %14, 0
  br i1 %15, label %42, label %16

16:                                               ; preds = %13
  %17 = call i32 @PyModule_AddIntConstant(ptr noundef %0, ptr noundef nonnull @.str.102, i64 noundef 3) #7
  %18 = icmp slt i32 %17, 0
  br i1 %18, label %42, label %19

19:                                               ; preds = %16
  %20 = call i32 @PyModule_AddIntConstant(ptr noundef %0, ptr noundef nonnull @.str.103, i64 noundef 4) #7
  %21 = icmp slt i32 %20, 0
  br i1 %21, label %42, label %22

22:                                               ; preds = %19
  %23 = call i32 @PyModule_AddIntConstant(ptr noundef %0, ptr noundef nonnull @.str.104, i64 noundef 5) #7
  %24 = icmp slt i32 %23, 0
  br i1 %24, label %42, label %25

25:                                               ; preds = %22
  %26 = load ptr, ptr @PyExc_InterpreterError, align 8, !tbaa !15
  %27 = call i32 @PyModule_AddType(ptr noundef %0, ptr noundef %26) #7
  %28 = icmp slt i32 %27, 0
  br i1 %28, label %42, label %29

29:                                               ; preds = %25
  %30 = load ptr, ptr @PyExc_InterpreterNotFoundError, align 8, !tbaa !15
  %31 = call i32 @PyModule_AddType(ptr noundef %0, ptr noundef %30) #7
  %32 = icmp slt i32 %31, 0
  br i1 %32, label %42, label %33

33:                                               ; preds = %29
  %34 = getelementptr inbounds nuw i8, ptr %2, i64 16
  %35 = load ptr, ptr %34, align 8, !tbaa !213
  %36 = call i32 @PyModule_AddType(ptr noundef %0, ptr noundef %35) #7
  %37 = icmp slt i32 %36, 0
  br i1 %37, label %42, label %38

38:                                               ; preds = %33
  %39 = getelementptr inbounds nuw i8, ptr %4, i64 8
  %40 = call fastcc i32 @register_memoryview_xid(ptr noundef %0, ptr noundef nonnull %39)
  %41 = icmp slt i32 %40, 0
  br i1 %41, label %42, label %43

42:                                               ; preds = %38, %33, %29, %25, %22, %19, %16, %13, %10, %7
  br label %43

43:                                               ; preds = %38, %1, %42
  %.0 = phi i32 [ -1, %42 ], [ -1, %1 ], [ 0, %38 ]
  call void @llvm.lifetime.end.p0(i64 24, ptr nonnull %2) #7
  ret i32 %.0
}